; Function Attrs: mustprogress nofree norecurse nosync nounwind willreturn memory(argmem: readwrite) uwtable
define noundef zeroext i1 @_ZN4base14PickleIterator9ReadBytesEPPKci(ptr noundef nonnull align 8 captures(none) dereferenceable(24) %0, ptr noundef writeonly captures(none) %1, i32 noundef %2) local_unnamed_addr #3 align 2 {
  %4 = icmp slt i32 %2, 0
  %.phi.trans.insert.i = getelementptr inbounds nuw i8, ptr %0, i64 16
  %.pre.i = load i64, ptr %.phi.trans.insert.i, align 8, !tbaa !22
  br i1 %4, label %_ZN4base14PickleIterator24GetReadPointerAndAdvanceEi.exit.thread, label %5

5:                                                ; preds = %3
  %6 = getelementptr inbounds nuw i8, ptr %0, i64 8
  %7 = load i64, ptr %6, align 8, !tbaa !21
  %8 = sub i64 %.pre.i, %7
  %9 = zext nneg i32 %2 to i64
  %10 = icmp ult i64 %8, %9
  br i1 %10, label %_ZN4base14PickleIterator24GetReadPointerAndAdvanceEi.exit.thread, label %_ZN4base14PickleIterator24GetReadPointerAndAdvanceEi.exit

_ZN4base14PickleIterator24GetReadPointerAndAdvanceEi.exit.thread: ; preds = %3, %5
  %11 = getelementptr inbounds nuw i8, ptr %0, i64 8
  store i64 %.pre.i, ptr %11, align 8, !tbaa !21
  br label %19

_ZN4base14PickleIterator24GetReadPointerAndAdvanceEi.exit: ; preds = %5
  %12 = load ptr, ptr %0, align 8, !tbaa !18
  %13 = add nuw nsw i64 %9, 3
  %14 = and i64 %13, 4294967292
  %15 = icmp ult i64 %8, %14
  %16 = add i64 %7, %14
  %storemerge.i.i = select i1 %15, i64 %.pre.i, i64 %16
  store i64 %storemerge.i.i, ptr %6, align 8, !tbaa !21
  %.not.not = icmp eq ptr %12, null
  br i1 %.not.not, label %19, label %17

17:                                               ; preds = %_ZN4base14PickleIterator24GetReadPointerAndAdvanceEi.exit
  %18 = getelementptr inbounds nuw i8, ptr %12, i64 %7
  store ptr %18, ptr %1, align 8, !tbaa !34
  br label %19

19:                                               ; preds = %_ZN4base14PickleIterator24GetReadPointerAndAdvanceEi.exit.thread, %_ZN4base14PickleIterator24GetReadPointerAndAdvanceEi.exit, %17
  %.not8 = phi i1 [ false, %_ZN4base14PickleIterator24GetReadPointerAndAdvanceEi.exit.thread ], [ false, %_ZN4base14PickleIterator24GetReadPointerAndAdvanceEi.exit ], [ true, %17 ]
  ret i1 %.not8
}